(lp0
(I0
I2
tp1
a(I1
I2
tp2
a(I2
I2
tp3
a(I2
I3
tp4
a(I2
I4
tp5
a(I3
I4
tp6
a(I4
I4
tp7
a(I4
I5
tp8
a(I5
I5
tp9
a(I6
I5
tp10
a(I7
I5
tp11
a(I8
I5
tp12
a(I8
I4
tp13
a(I8
I3
tp14
a(I8
I2
tp15
a(I9
I2
tp16
a(I10
I2
tp17
a(I10
I3
tp18
a(I10
I4
tp19
a(I10
I5
tp20
a(I11
I5
tp21
a.